target datalayout = "e-m:e-p270:32:32-p271:32:32-p272:64:64-i64:64-i128:128-f80:128-n8:16:32:64-S128"
target triple = "x86_64-pc-linux-gnu"

@H5_libterm_g = external global i8, align 1
@.str = private unnamed_addr constant [101 x i8] c"generated/home/dtcxzyw/WorkSpace/Projects/compilers/llvm-opt-benchmark/bench/hdf5/hdf5/src/H5Tvlen.c\00", align 1
@H5T_init_g = external global i8, align 1
@H5E_DATATYPE_g = external global i64, align 8
@H5E_CANTGET_g = external global i64, align 8
@__func__.H5T__vlen_disk_read = private unnamed_addr constant [20 x i8] c"H5T__vlen_disk_read\00", align 1
@.str.27 = private unnamed_addr constant [19 x i8] c"unable to get blob\00", align 1

; Function Attrs: nounwind uwtable
define internal i32 @H5T__vlen_disk_read(ptr noundef %0, ptr noundef %1, ptr noundef %2, i64 noundef %3) #0 {
  %5 = alloca ptr, align 8
  %6 = alloca ptr, align 8
  %7 = alloca ptr, align 8
  %8 = alloca i64, align 8
  %9 = alloca ptr, align 8
  %10 = alloca i32, align 4
  %11 = alloca i8, align 1
  store ptr %0, ptr %5, align 8, !tbaa !30
  store ptr %1, ptr %6, align 8, !tbaa !38
  store ptr %2, ptr %7, align 8, !tbaa !38
  store i64 %3, ptr %8, align 8, !tbaa !3
  call void @llvm.lifetime.start.p0(i64 8, ptr %9) #9
  %12 = load ptr, ptr %6, align 8, !tbaa !38
  store ptr %12, ptr %9, align 8, !tbaa !53
  call void @llvm.lifetime.start.p0(i64 4, ptr %10) #9
  store i32 0, ptr %10, align 4, !tbaa !31
  call void @llvm.lifetime.start.p0(i64 1, ptr %11) #9
  store i8 0, ptr %11, align 1, !tbaa !10
  %13 = load i8, ptr @H5T_init_g, align 1, !tbaa !10, !range !12, !noundef !13
  %14 = trunc i8 %13 to i1
  br i1 %14, label %19, label %15

15:                                               ; preds = %4
  %16 = load i8, ptr @H5_libterm_g, align 1, !tbaa !10, !range !12, !noundef !13
  %17 = trunc i8 %16 to i1
  %18 = xor i1 %17, true
  br label %19

19:                                               ; preds = %15, %4
  %20 = phi i1 [ true, %4 ], [ %18, %15 ]
  %21 = xor i1 %20, true
  %22 = xor i1 %21, true
  %23 = zext i1 %22 to i32
  %24 = sext i32 %23 to i64
  %25 = call i64 @llvm.expect.i64(i64 %24, i64 1)
  %26 = icmp ne i64 %25, 0
  br i1 %26, label %27, label %57

27:                                               ; preds = %19
  %28 = load ptr, ptr %9, align 8, !tbaa !53
  %29 = getelementptr inbounds i8, ptr %28, i64 4
  store ptr %29, ptr %9, align 8, !tbaa !53
  %30 = load ptr, ptr %5, align 8, !tbaa !30
  %31 = load ptr, ptr %9, align 8, !tbaa !53
  %32 = load ptr, ptr %7, align 8, !tbaa !38
  %33 = load i64, ptr %8, align 8, !tbaa !3
  %34 = call i32 @H5VL_blob_get(ptr noundef %30, ptr noundef %31, ptr noundef %32, i64 noundef %33, ptr noundef null)
  %35 = icmp slt i32 %34, 0
  br i1 %35, label %36, label %55

36:                                               ; preds = %27
  br label %37

37:                                               ; preds = %36
  br label %38

38:                                               ; preds = %37
  br label %39

39:                                               ; preds = %38
  %40 = load i64, ptr @H5E_DATATYPE_g, align 8, !tbaa !3
  %41 = load i64, ptr @H5E_CANTGET_g, align 8, !tbaa !3
  %42 = call i32 (ptr, ptr, i32, i64, i64, ptr, ...) @H5E_printf_stack(ptr noundef @.str, ptr noundef @__func__.H5T__vlen_disk_read, i32 noundef 840, i64 noundef %40, i64 noundef %41, ptr noundef @.str.27)
  br label %43

43:                                               ; preds = %39
  br label %44

44:                                               ; preds = %43
  store i8 1, ptr %11, align 1, !tbaa !10
  %45 = load i8, ptr %11, align 1, !tbaa !10, !range !12, !noundef !13
  %46 = trunc i8 %45 to i1
  %47 = zext i1 %46 to i8
  store i8 %47, ptr %11, align 1, !tbaa !10
  br label %48

48:                                               ; preds = %44
  br label %49

49:                                               ; preds = %48
  br label %50

50:                                               ; preds = %49
  store i32 -1, ptr %10, align 4, !tbaa !31
  br label %56

51:                                               ; No predecessors!
  br label %52

52:                                               ; preds = %51
  br label %53

53:                                               ; preds = %52
  br label %54

54:                                               ; preds = %53
  br label %55

55:                                               ; preds = %54, %27
  br label %56

56:                                               ; preds = %55, %50
  br label %57

57:                                               ; preds = %56, %19
  %58 = load i32, ptr %10, align 4, !tbaa !31
  call void @llvm.lifetime.end.p0(i64 1, ptr %11) #9
  call void @llvm.lifetime.end.p0(i64 4, ptr %10) #9
  call void @llvm.lifetime.end.p0(i64 8, ptr %9) #9
  ret i32 %58
}