; Function Attrs: nounwind uwtable
define internal range(i32 -1, 1) i32 @H5T__vlen_disk_read(ptr noundef %0, ptr noundef %1, ptr noundef %2, i64 noundef %3) #0 {
  %5 = load i8, ptr @H5T_init_g, align 1, !tbaa !3, !range !7, !noundef !8
  %6 = trunc nuw i8 %5 to i1
  %7 = load i8, ptr @H5_libterm_g, align 1, !range !7
  %8 = trunc nuw i8 %7 to i1
  %9 = xor i1 %8, true
  %10 = select i1 %6, i1 true, i1 %9
  br i1 %10, label %11, label %19, !prof !9

11:                                               ; preds = %4
  %12 = getelementptr inbounds nuw i8, ptr %1, i64 4
  %13 = tail call i32 @H5VL_blob_get(ptr noundef %0, ptr noundef nonnull %12, ptr noundef %2, i64 noundef %3, ptr noundef null) #13
  %14 = icmp slt i32 %13, 0
  br i1 %14, label %15, label %19

15:                                               ; preds = %11
  %16 = load i64, ptr @H5E_DATATYPE_g, align 8, !tbaa !11
  %17 = load i64, ptr @H5E_CANTGET_g, align 8, !tbaa !11
  %18 = tail call i32 (ptr, ptr, i32, i64, i64, ptr, ...) @H5E_printf_stack(ptr noundef nonnull @.str, ptr noundef nonnull @__func__.H5T__vlen_disk_read, i32 noundef 840, i64 noundef %16, i64 noundef %17, ptr noundef nonnull @.str.27) #13
  br label %19

19:                                               ; preds = %15, %11, %4
  %.0 = phi i32 [ -1, %15 ], [ 0, %11 ], [ 0, %4 ]
  ret i32 %.0
}